; Function Attrs: mustprogress uwtable
define void @_ZN6icu_779UVector64C2ER10UErrorCode(ptr noundef nonnull align 8 dereferenceable(32) initializes((0, 20), (24, 32)) %0, ptr noundef nonnull writeonly align 4 captures(none) dereferenceable(4) %1) unnamed_addr #1 align 2 personality ptr @__gxx_personality_v0 {
  store ptr getelementptr inbounds nuw inrange(-16, 24) (i8, ptr @_ZTVN6icu_779UVector64E, i64 16), ptr %0, align 8, !tbaa !3
  %3 = getelementptr inbounds nuw i8, ptr %0, i64 8
  store i32 0, ptr %3, align 8, !tbaa !6
  %4 = getelementptr inbounds nuw i8, ptr %0, i64 12
  store i32 0, ptr %4, align 4, !tbaa !13
  %5 = getelementptr inbounds nuw i8, ptr %0, i64 16
  store i32 0, ptr %5, align 8, !tbaa !14
  %6 = getelementptr inbounds nuw i8, ptr %0, i64 24
  store ptr null, ptr %6, align 8, !tbaa !15
  %7 = invoke noalias dereferenceable_or_null(64) ptr @uprv_malloc_77(i64 noundef 64) #14
          to label %.noexc unwind label %11

.noexc:                                           ; preds = %2
  store ptr %7, ptr %6, align 8, !tbaa !15
  %8 = icmp eq ptr %7, null
  br i1 %8, label %9, label %10

9:                                                ; preds = %.noexc
  store i32 7, ptr %1, align 4, !tbaa !16
  br label %_ZN6icu_779UVector645_initEiR10UErrorCode.exit

10:                                               ; preds = %.noexc
  store i32 8, ptr %4, align 4, !tbaa !13
  br label %_ZN6icu_779UVector645_initEiR10UErrorCode.exit

_ZN6icu_779UVector645_initEiR10UErrorCode.exit:   ; preds = %10, %9
  ret void

11:                                               ; preds = %2
  %12 = landingpad { ptr, i32 }
          cleanup
  tail call void @_ZN6icu_777UObjectD2Ev(ptr noundef nonnull align 8 dereferenceable(8) %0) #15
  resume { ptr, i32 } %12
}